target datalayout = "e-m:e-p270:32:32-p271:32:32-p272:64:64-i64:64-i128:128-f80:128-n8:16:32:64-S128"
target triple = "x86_64-unknown-linux-gnu"

%struct.malloc_mutex_s = type { %union.anon }
%union.anon = type { %struct.anon.1 }
%struct.anon.1 = type { %struct.mutex_prof_data_t, %union.pthread_mutex_t, %struct.atomic_b_t }
%struct.mutex_prof_data_t = type { %struct.nstime_t, %struct.nstime_t, i64, i64, i32, %struct.atomic_u32_t, i64, ptr, i64 }
%struct.nstime_t = type { i64 }
%struct.atomic_u32_t = type { i32 }
%union.pthread_mutex_t = type { %struct.__pthread_mutex_s }
%struct.__pthread_mutex_s = type { i32, i32, i32, i32, i32, i16, i16, %struct.__pthread_internal_list }
%struct.__pthread_internal_list = type { ptr, ptr }
%struct.atomic_b_t = type { i8 }
%struct.atomic_zd_t = type { i64 }
%struct.hpa_shard_opts_s = type { i64, i64, i32, i8, i64, i64 }
%struct.sec_opts_s = type { i64, i64, i64, i64, i64 }
%struct.arena_s = type { [2 x %struct.atomic_u_t], %struct.atomic_u_t, ptr, %struct.arena_stats_s, %struct.anon, %struct.anon.0, %struct.malloc_mutex_s, %struct.atomic_u_t, %struct.edata_list_active_t, %struct.malloc_mutex_s, %struct.pa_shard_s, i32, ptr, %struct.nstime_t, [0 x %struct.bin_s] }
%struct.arena_stats_s = type { i64, i64, i64, i64, %struct.atomic_zu_t, i64, i64, i64, i64, i64, i64, %struct.pa_shard_stats_s, i64, i64, [12 x %struct.mutex_prof_data_t], [196 x %struct.arena_stats_large_s], %struct.nstime_t }
%struct.atomic_zu_t = type { i64 }
%struct.pa_shard_stats_s = type { i64, %struct.pac_stats_s }
%struct.pac_stats_s = type { %struct.pac_decay_stats_s, %struct.pac_decay_stats_s, i64, %struct.atomic_zu_t, %struct.atomic_zu_t }
%struct.pac_decay_stats_s = type { %struct.locked_u64_s, %struct.locked_u64_s, %struct.locked_u64_s }
%struct.locked_u64_s = type { %struct.atomic_u64_t }
%struct.atomic_u64_t = type { i64 }
%struct.arena_stats_large_s = type { %struct.locked_u64_s, %struct.locked_u64_s, %struct.locked_u64_s, %struct.locked_u64_s, %struct.locked_u64_s, i64 }
%struct.anon = type { ptr }
%struct.anon.0 = type { ptr }
%struct.atomic_u_t = type { i32 }
%struct.edata_list_active_t = type { %struct.anon.3 }
%struct.anon.3 = type { ptr }
%struct.pa_shard_s = type { ptr, %struct.atomic_zu_t, %struct.atomic_b_t, i8, %struct.pac_s, %struct.sec_s, %struct.hpa_shard_s, %struct.edata_cache_s, i32, ptr, ptr, ptr, ptr }
%struct.pac_s = type { %struct.pai_s, %struct.ecache_s, %struct.ecache_s, %struct.ecache_s, ptr, ptr, ptr, %struct.exp_grow_s, %struct.malloc_mutex_s, %struct.san_bump_alloc_s, %struct.atomic_zu_t, %struct.decay_s, %struct.decay_s, ptr, ptr, %struct.atomic_zu_t }
%struct.pai_s = type { ptr, ptr, ptr, ptr, ptr, ptr, ptr }
%struct.ecache_s = type { %struct.malloc_mutex_s, %struct.eset_s, %struct.eset_s, i32, i32, i8 }
%struct.eset_s = type { [4 x i64], [200 x %struct.eset_bin_s], [200 x %struct.eset_bin_stats_s], %struct.edata_list_inactive_t, %struct.atomic_zu_t, i32 }
%struct.eset_bin_s = type { %struct.edata_heap_t, %struct.edata_cmp_summary_s }
%struct.edata_heap_t = type { %struct.ph_s }
%struct.ph_s = type { ptr, i64 }
%struct.edata_cmp_summary_s = type { i64, i64 }
%struct.eset_bin_stats_s = type { %struct.atomic_zu_t, %struct.atomic_zu_t }
%struct.edata_list_inactive_t = type { %struct.anon.4 }
%struct.anon.4 = type { ptr }
%struct.exp_grow_s = type { i32, i32 }
%struct.san_bump_alloc_s = type { %struct.malloc_mutex_s, ptr }
%struct.decay_s = type { %struct.malloc_mutex_s, i8, %struct.atomic_zd_t, %struct.nstime_t, %struct.nstime_t, i64, %struct.nstime_t, i64, i64, [200 x i64], i64 }
%struct.sec_s = type { %struct.pai_s, ptr, %struct.sec_opts_s, ptr, i32 }
%struct.hpa_shard_s = type { %struct.pai_s, ptr, %struct.malloc_mutex_s, %struct.malloc_mutex_s, ptr, %struct.edata_cache_fast_s, %struct.psset_s, i64, i32, ptr, %struct.hpa_shard_opts_s, i64, %struct.hpa_shard_nonderived_stats_s, %struct.nstime_t }
%struct.edata_cache_fast_s = type { %struct.edata_list_inactive_t, ptr, i8 }
%struct.psset_s = type { [64 x %struct.hpdata_age_heap_t], [1 x i64], %struct.psset_bin_stats_s, %struct.psset_stats_s, %struct.hpdata_empty_list_t, [128 x %struct.hpdata_purge_list_t], [2 x i64], %struct.hpdata_hugify_list_t }
%struct.hpdata_age_heap_t = type { %struct.ph_s }
%struct.psset_bin_stats_s = type { i64, i64, i64 }
%struct.psset_stats_s = type { [64 x [2 x %struct.psset_bin_stats_s]], [2 x %struct.psset_bin_stats_s], [2 x %struct.psset_bin_stats_s] }
%struct.hpdata_empty_list_t = type { %struct.anon.5 }
%struct.anon.5 = type { ptr }
%struct.hpdata_purge_list_t = type { %struct.anon.6 }
%struct.anon.6 = type { ptr }
%struct.hpdata_hugify_list_t = type { %struct.anon.7 }
%struct.anon.7 = type { ptr }
%struct.hpa_shard_nonderived_stats_s = type { i64, i64, i64, i64 }
%struct.edata_cache_s = type { %struct.edata_avail_t, %struct.atomic_zu_t, %struct.malloc_mutex_s, ptr }
%struct.edata_avail_t = type { %struct.ph_s }
%struct.bin_s = type { %struct.malloc_mutex_s, %struct.bin_stats_s, ptr, %struct.edata_heap_t, %struct.edata_list_active_t }
%struct.bin_stats_s = type { i64, i64, i64, i64, i64, i64, i64, i64, i64, i64 }
%struct.edata_s = type { i64, ptr, %union.anon.11, ptr, i64, %union.anon.12, %union.anon.15 }
%union.anon.11 = type { i64 }
%union.anon.12 = type { %union.anon.14 }
%union.anon.14 = type { %struct.edata_heap_link_t }
%struct.edata_heap_link_t = type { %struct.phn_link_s }
%struct.phn_link_s = type { ptr, ptr, ptr }
%union.anon.15 = type { %struct.slab_data_s }
%struct.slab_data_s = type { [8 x i64] }
%struct.anon.13 = type { ptr, ptr }

@manual_arena_base = external global i32, align 4

; Function Attrs: nounwind uwtable
define internal i32 @arena_ind_get(ptr noundef %arena) #0 {
entry:
  %arena.addr = alloca ptr, align 8
  store ptr %arena, ptr %arena.addr, align 8
  %0 = load ptr, ptr %arena.addr, align 8
  %ind = getelementptr inbounds %struct.arena_s, ptr %0, i32 0, i32 11
  %1 = load i32, ptr %ind, align 8
  ret i32 %1
}

; Function Attrs: nounwind uwtable
define internal void @edata_list_active_remove(ptr noundef %list, ptr noundef %item) #0 {
entry:
  %list.addr = alloca ptr, align 8
  %item.addr = alloca ptr, align 8
  store ptr %list, ptr %list.addr, align 8
  store ptr %item, ptr %item.addr, align 8
  br label %do.body

do.body:                                          ; preds = %entry
  %0 = load ptr, ptr %list.addr, align 8
  %head = getelementptr inbounds %struct.edata_list_active_t, ptr %0, i32 0, i32 0
  %qlh_first = getelementptr inbounds %struct.anon.3, ptr %head, i32 0, i32 0
  %1 = load ptr, ptr %qlh_first, align 8
  %2 = load ptr, ptr %item.addr, align 8
  %cmp = icmp eq ptr %1, %2
  br i1 %cmp, label %if.then, label %if.end

if.then:                                          ; preds = %do.body
  %3 = load ptr, ptr %list.addr, align 8
  %head1 = getelementptr inbounds %struct.edata_list_active_t, ptr %3, i32 0, i32 0
  %qlh_first2 = getelementptr inbounds %struct.anon.3, ptr %head1, i32 0, i32 0
  %4 = load ptr, ptr %qlh_first2, align 8
  %5 = getelementptr inbounds %struct.edata_s, ptr %4, i32 0, i32 5
  %qre_next = getelementptr inbounds %struct.anon.13, ptr %5, i32 0, i32 0
  %6 = load ptr, ptr %qre_next, align 8
  %7 = load ptr, ptr %list.addr, align 8
  %head3 = getelementptr inbounds %struct.edata_list_active_t, ptr %7, i32 0, i32 0
  %qlh_first4 = getelementptr inbounds %struct.anon.3, ptr %head3, i32 0, i32 0
  store ptr %6, ptr %qlh_first4, align 8
  br label %if.end

if.end:                                           ; preds = %if.then, %do.body
  %8 = load ptr, ptr %list.addr, align 8
  %head5 = getelementptr inbounds %struct.edata_list_active_t, ptr %8, i32 0, i32 0
  %qlh_first6 = getelementptr inbounds %struct.anon.3, ptr %head5, i32 0, i32 0
  %9 = load ptr, ptr %qlh_first6, align 8
  %10 = load ptr, ptr %item.addr, align 8
  %cmp7 = icmp ne ptr %9, %10
  br i1 %cmp7, label %if.then8, label %if.else

if.then8:                                         ; preds = %if.end
  br label %do.body9

do.body9:                                         ; preds = %if.then8
  %11 = load ptr, ptr %item.addr, align 8
  %12 = getelementptr inbounds %struct.edata_s, ptr %11, i32 0, i32 5
  %qre_next10 = getelementptr inbounds %struct.anon.13, ptr %12, i32 0, i32 0
  %13 = load ptr, ptr %qre_next10, align 8
  %14 = getelementptr inbounds %struct.edata_s, ptr %13, i32 0, i32 5
  %qre_prev = getelementptr inbounds %struct.anon.13, ptr %14, i32 0, i32 1
  %15 = load ptr, ptr %qre_prev, align 8
  %16 = load ptr, ptr %item.addr, align 8
  %17 = getelementptr inbounds %struct.edata_s, ptr %16, i32 0, i32 5
  %qre_prev11 = getelementptr inbounds %struct.anon.13, ptr %17, i32 0, i32 1
  %18 = load ptr, ptr %qre_prev11, align 8
  %19 = getelementptr inbounds %struct.edata_s, ptr %18, i32 0, i32 5
  %qre_next12 = getelementptr inbounds %struct.anon.13, ptr %19, i32 0, i32 0
  store ptr %15, ptr %qre_next12, align 8
  %20 = load ptr, ptr %item.addr, align 8
  %21 = getelementptr inbounds %struct.edata_s, ptr %20, i32 0, i32 5
  %qre_prev13 = getelementptr inbounds %struct.anon.13, ptr %21, i32 0, i32 1
  %22 = load ptr, ptr %qre_prev13, align 8
  %23 = load ptr, ptr %item.addr, align 8
  %24 = getelementptr inbounds %struct.edata_s, ptr %23, i32 0, i32 5
  %qre_next14 = getelementptr inbounds %struct.anon.13, ptr %24, i32 0, i32 0
  %25 = load ptr, ptr %qre_next14, align 8
  %26 = getelementptr inbounds %struct.edata_s, ptr %25, i32 0, i32 5
  %qre_prev15 = getelementptr inbounds %struct.anon.13, ptr %26, i32 0, i32 1
  store ptr %22, ptr %qre_prev15, align 8
  %27 = load ptr, ptr %item.addr, align 8
  %28 = getelementptr inbounds %struct.edata_s, ptr %27, i32 0, i32 5
  %qre_prev16 = getelementptr inbounds %struct.anon.13, ptr %28, i32 0, i32 1
  %29 = load ptr, ptr %qre_prev16, align 8
  %30 = getelementptr inbounds %struct.edata_s, ptr %29, i32 0, i32 5
  %qre_next17 = getelementptr inbounds %struct.anon.13, ptr %30, i32 0, i32 0
  %31 = load ptr, ptr %qre_next17, align 8
  %32 = load ptr, ptr %item.addr, align 8
  %33 = getelementptr inbounds %struct.edata_s, ptr %32, i32 0, i32 5
  %qre_prev18 = getelementptr inbounds %struct.anon.13, ptr %33, i32 0, i32 1
  store ptr %31, ptr %qre_prev18, align 8
  %34 = load ptr, ptr %item.addr, align 8
  %35 = getelementptr inbounds %struct.edata_s, ptr %34, i32 0, i32 5
  %qre_next19 = getelementptr inbounds %struct.anon.13, ptr %35, i32 0, i32 0
  %36 = load ptr, ptr %qre_next19, align 8
  %37 = load ptr, ptr %item.addr, align 8
  %38 = getelementptr inbounds %struct.edata_s, ptr %37, i32 0, i32 5
  %qre_next20 = getelementptr inbounds %struct.anon.13, ptr %38, i32 0, i32 0
  %39 = load ptr, ptr %qre_next20, align 8
  %40 = getelementptr inbounds %struct.edata_s, ptr %39, i32 0, i32 5
  %qre_prev21 = getelementptr inbounds %struct.anon.13, ptr %40, i32 0, i32 1
  %41 = load ptr, ptr %qre_prev21, align 8
  %42 = getelementptr inbounds %struct.edata_s, ptr %41, i32 0, i32 5
  %qre_next22 = getelementptr inbounds %struct.anon.13, ptr %42, i32 0, i32 0
  store ptr %36, ptr %qre_next22, align 8
  %43 = load ptr, ptr %item.addr, align 8
  %44 = load ptr, ptr %item.addr, align 8
  %45 = getelementptr inbounds %struct.edata_s, ptr %44, i32 0, i32 5
  %qre_prev23 = getelementptr inbounds %struct.anon.13, ptr %45, i32 0, i32 1
  %46 = load ptr, ptr %qre_prev23, align 8
  %47 = getelementptr inbounds %struct.edata_s, ptr %46, i32 0, i32 5
  %qre_next24 = getelementptr inbounds %struct.anon.13, ptr %47, i32 0, i32 0
  store ptr %43, ptr %qre_next24, align 8
  br label %do.end

do.end:                                           ; preds = %do.body9
  br label %if.end29

if.else:                                          ; preds = %if.end
  br label %do.body25

do.body25:                                        ; preds = %if.else
  %48 = load ptr, ptr %list.addr, align 8
  %head26 = getelementptr inbounds %struct.edata_list_active_t, ptr %48, i32 0, i32 0
  %qlh_first27 = getelementptr inbounds %struct.anon.3, ptr %head26, i32 0, i32 0
  store ptr null, ptr %qlh_first27, align 8
  br label %do.end28

do.end28:                                         ; preds = %do.body25
  br label %if.end29

if.end29:                                         ; preds = %do.end28, %do.end
  br label %do.end30

do.end30:                                         ; preds = %if.end29
  ret void
}

; Function Attrs: nounwind uwtable
define internal zeroext i1 @arena_is_auto(ptr noundef %arena) #0 {
entry:
  %arena.addr = alloca ptr, align 8
  store ptr %arena, ptr %arena.addr, align 8
  br label %do.body

do.body:                                          ; preds = %entry
  br label %do.end

do.end:                                           ; preds = %do.body
  %0 = load ptr, ptr %arena.addr, align 8
  %call = call i32 @arena_ind_get(ptr noundef %0)
  %1 = load i32, ptr @manual_arena_base, align 4
  %cmp = icmp ult i32 %call, %1
  ret i1 %cmp
}

; Function Attrs: nounwind uwtable
define internal void @arena_bin_slabs_full_remove(ptr noundef %arena, ptr noundef %bin, ptr noundef %slab) #0 {
entry:
  %arena.addr = alloca ptr, align 8
  %bin.addr = alloca ptr, align 8
  %slab.addr = alloca ptr, align 8
  store ptr %arena, ptr %arena.addr, align 8
  store ptr %bin, ptr %bin.addr, align 8
  store ptr %slab, ptr %slab.addr, align 8
  %0 = load ptr, ptr %arena.addr, align 8
  %call = call zeroext i1 @arena_is_auto(ptr noundef %0)
  br i1 %call, label %if.then, label %if.end

if.then:                                          ; preds = %entry
  br label %return

if.end:                                           ; preds = %entry
  %1 = load ptr, ptr %bin.addr, align 8
  %slabs_full = getelementptr inbounds %struct.bin_s, ptr %1, i32 0, i32 4
  %2 = load ptr, ptr %slab.addr, align 8
  call void @edata_list_active_remove(ptr noundef %slabs_full, ptr noundef %2)
  br label %return

return:                                           ; preds = %if.end, %if.then
  ret void
}

; Function Attrs: nounwind uwtable
define hidden void @arena_dalloc_bin_locked_handle_newly_nonempty(ptr noundef %tsdn, ptr noundef %arena, ptr noundef %slab, ptr noundef %bin) #0 {
entry:
  %tsdn.addr = alloca ptr, align 8
  %arena.addr = alloca ptr, align 8
  %slab.addr = alloca ptr, align 8
  %bin.addr = alloca ptr, align 8
  store ptr %tsdn, ptr %tsdn.addr, align 8
  store ptr %arena, ptr %arena.addr, align 8
  store ptr %slab, ptr %slab.addr, align 8
  store ptr %bin, ptr %bin.addr, align 8
  %0 = load ptr, ptr %arena.addr, align 8
  %1 = load ptr, ptr %bin.addr, align 8
  %2 = load ptr, ptr %slab.addr, align 8
  call void @arena_bin_slabs_full_remove(ptr noundef %0, ptr noundef %1, ptr noundef %2)
  %3 = load ptr, ptr %tsdn.addr, align 8
  %4 = load ptr, ptr %arena.addr, align 8
  %5 = load ptr, ptr %slab.addr, align 8
  %6 = load ptr, ptr %bin.addr, align 8
  call void @arena_bin_lower_slab(ptr noundef %3, ptr noundef %4, ptr noundef %5, ptr noundef %6)
  ret void
}