; Function Attrs: nounwind uwtable
define hidden void @arena_dalloc_bin_locked_handle_newly_nonempty(ptr nocapture noundef readnone %tsdn, ptr nocapture noundef readonly %arena, ptr noundef %slab, ptr noundef %bin) local_unnamed_addr #0 {
entry:
  %0 = getelementptr i8, ptr %arena, i64 78928
  %arena.val = load i32, ptr %0, align 8
  %1 = load i32, ptr @manual_arena_base, align 4
  %cmp.i.i = icmp ugt i32 %1, %arena.val
  br i1 %cmp.i.i, label %arena_bin_slabs_full_remove.exit, label %if.end.i

if.end.i:                                         ; preds = %entry
  %slabs_full.i = getelementptr inbounds i8, ptr %bin, i64 216
  %2 = load ptr, ptr %slabs_full.i, align 8
  %cmp.i1.i = icmp eq ptr %2, %slab
  br i1 %cmp.i1.i, label %if.then.i.i, label %if.end.i.i

if.then.i.i:                                      ; preds = %if.end.i
  %3 = getelementptr inbounds i8, ptr %slab, i64 40
  %4 = load ptr, ptr %3, align 8
  store ptr %4, ptr %slabs_full.i, align 8
  br label %if.end.i.i

if.end.i.i:                                       ; preds = %if.then.i.i, %if.end.i
  %5 = phi ptr [ %4, %if.then.i.i ], [ %2, %if.end.i ]
  %cmp7.not.i.i = icmp eq ptr %5, %slab
  br i1 %cmp7.not.i.i, label %do.body25.i.i, label %do.body9.i.i

do.body9.i.i:                                     ; preds = %if.end.i.i
  %6 = getelementptr inbounds i8, ptr %slab, i64 40
  %7 = load ptr, ptr %6, align 8
  %qre_prev.i.i = getelementptr inbounds i8, ptr %7, i64 48
  %8 = load ptr, ptr %qre_prev.i.i, align 8
  %qre_prev11.i.i = getelementptr inbounds i8, ptr %slab, i64 48
  %9 = load ptr, ptr %qre_prev11.i.i, align 8
  %10 = getelementptr inbounds i8, ptr %9, i64 40
  store ptr %8, ptr %10, align 8
  %11 = load ptr, ptr %qre_prev11.i.i, align 8
  %12 = load ptr, ptr %6, align 8
  %qre_prev15.i.i = getelementptr inbounds i8, ptr %12, i64 48
  store ptr %11, ptr %qre_prev15.i.i, align 8
  %13 = getelementptr inbounds i8, ptr %11, i64 40
  %14 = load ptr, ptr %13, align 8
  store ptr %14, ptr %qre_prev11.i.i, align 8
  %15 = load ptr, ptr %6, align 8
  %qre_prev21.i.i = getelementptr inbounds i8, ptr %15, i64 48
  %16 = load ptr, ptr %qre_prev21.i.i, align 8
  %17 = getelementptr inbounds i8, ptr %16, i64 40
  store ptr %15, ptr %17, align 8
  %18 = load ptr, ptr %qre_prev11.i.i, align 8
  %19 = getelementptr inbounds i8, ptr %18, i64 40
  store ptr %slab, ptr %19, align 8
  br label %arena_bin_slabs_full_remove.exit

do.body25.i.i:                                    ; preds = %if.end.i.i
  store ptr null, ptr %slabs_full.i, align 8
  br label %arena_bin_slabs_full_remove.exit

arena_bin_slabs_full_remove.exit:                 ; preds = %entry, %do.body9.i.i, %do.body25.i.i
  tail call fastcc void @arena_bin_lower_slab(ptr noundef nonnull %arena, ptr noundef %slab, ptr noundef %bin)
  ret void
}